target datalayout = "e-m:e-p270:32:32-p271:32:32-p272:64:64-i64:64-i128:128-f80:128-n8:16:32:64-S128"
target triple = "x86_64-pc-linux-gnu"

%struct._tvbparse_wanted_t = type { i32, ptr, %union.anon, i32, i32, i32, ptr, ptr, ptr }
%union.anon = type { %struct.anon.2 }
%struct.anon.2 = type { ptr, ptr, ptr }
%struct.__va_list_tag = type { i32, i32, ptr, ptr }

; Function Attrs: null_pointer_is_valid sspstrong uwtable
define ptr @tvbparse_hashed(i32 noundef %0, ptr noundef %1, ptr noundef %2, ptr noundef %3, ptr noundef %4, ptr noundef %5, ...) #0 {
  %7 = alloca i32, align 4
  %8 = alloca ptr, align 8
  %9 = alloca ptr, align 8
  %10 = alloca ptr, align 8
  %11 = alloca ptr, align 8
  %12 = alloca ptr, align 8
  %13 = alloca ptr, align 8
  %14 = alloca ptr, align 8
  %15 = alloca ptr, align 8
  %16 = alloca [1 x %struct.__va_list_tag], align 16
  store i32 %0, ptr %7, align 4
  store ptr %1, ptr %8, align 8
  store ptr %2, ptr %9, align 8
  store ptr %3, ptr %10, align 8
  store ptr %4, ptr %11, align 8
  store ptr %5, ptr %12, align 8
  call void @llvm.lifetime.start.p0(i64 8, ptr %13) #11
  %17 = call ptr @wmem_epan_scope()
  %18 = call noalias ptr @wmem_alloc0(ptr noundef %17, i64 noundef 80) #12
  store ptr %18, ptr %13, align 8
  call void @llvm.lifetime.start.p0(i64 8, ptr %14) #11
  call void @llvm.lifetime.start.p0(i64 8, ptr %15) #11
  call void @llvm.lifetime.start.p0(i64 24, ptr %16) #11
  %19 = load ptr, ptr %13, align 8
  %20 = getelementptr inbounds nuw %struct._tvbparse_wanted_t, ptr %19, i32 0, i32 1
  store ptr @cond_hash, ptr %20, align 8
  %21 = load i32, ptr %7, align 4
  %22 = load ptr, ptr %13, align 8
  %23 = getelementptr inbounds nuw %struct._tvbparse_wanted_t, ptr %22, i32 0, i32 0
  store i32 %21, ptr %23, align 8
  %24 = load ptr, ptr %8, align 8
  %25 = load ptr, ptr %13, align 8
  %26 = getelementptr inbounds nuw %struct._tvbparse_wanted_t, ptr %25, i32 0, i32 6
  store ptr %24, ptr %26, align 8
  %27 = load ptr, ptr %9, align 8
  %28 = load ptr, ptr %13, align 8
  %29 = getelementptr inbounds nuw %struct._tvbparse_wanted_t, ptr %28, i32 0, i32 7
  store ptr %27, ptr %29, align 8
  %30 = load ptr, ptr %10, align 8
  %31 = load ptr, ptr %13, align 8
  %32 = getelementptr inbounds nuw %struct._tvbparse_wanted_t, ptr %31, i32 0, i32 8
  store ptr %30, ptr %32, align 8
  %33 = call ptr @wmem_epan_scope()
  %34 = call noalias ptr @wmem_map_new(ptr noundef %33, ptr noundef @g_str_hash, ptr noundef @g_str_equal)
  %35 = load ptr, ptr %13, align 8
  %36 = getelementptr inbounds nuw %struct._tvbparse_wanted_t, ptr %35, i32 0, i32 2
  %37 = getelementptr inbounds nuw %struct.anon.2, ptr %36, i32 0, i32 0
  store ptr %34, ptr %37, align 8
  %38 = load ptr, ptr %11, align 8
  %39 = load ptr, ptr %13, align 8
  %40 = getelementptr inbounds nuw %struct._tvbparse_wanted_t, ptr %39, i32 0, i32 2
  %41 = getelementptr inbounds nuw %struct.anon.2, ptr %40, i32 0, i32 1
  store ptr %38, ptr %41, align 8
  %42 = load ptr, ptr %12, align 8
  %43 = load ptr, ptr %13, align 8
  %44 = getelementptr inbounds nuw %struct._tvbparse_wanted_t, ptr %43, i32 0, i32 2
  %45 = getelementptr inbounds nuw %struct.anon.2, ptr %44, i32 0, i32 2
  store ptr %42, ptr %45, align 8
  %46 = getelementptr inbounds [1 x %struct.__va_list_tag], ptr %16, i64 0, i64 0
  call void @llvm.va_start.p0(ptr %46)
  br label %47

47:                                               ; preds = %79, %6
  %48 = getelementptr inbounds [1 x %struct.__va_list_tag], ptr %16, i64 0, i64 0
  %49 = getelementptr inbounds nuw %struct.__va_list_tag, ptr %48, i32 0, i32 0
  %50 = load i32, ptr %49, align 16
  %51 = icmp ule i32 %50, 40
  br i1 %51, label %52, label %57

52:                                               ; preds = %47
  %53 = getelementptr inbounds nuw %struct.__va_list_tag, ptr %48, i32 0, i32 3
  %54 = load ptr, ptr %53, align 16
  %55 = getelementptr i8, ptr %54, i32 %50
  %56 = add i32 %50, 8
  store i32 %56, ptr %49, align 16
  br label %61

57:                                               ; preds = %47
  %58 = getelementptr inbounds nuw %struct.__va_list_tag, ptr %48, i32 0, i32 2
  %59 = load ptr, ptr %58, align 8
  %60 = getelementptr i8, ptr %59, i32 8
  store ptr %60, ptr %58, align 8
  br label %61

61:                                               ; preds = %57, %52
  %62 = phi ptr [ %55, %52 ], [ %59, %57 ]
  %63 = load ptr, ptr %62, align 8
  store ptr %63, ptr %14, align 8
  %64 = icmp ne ptr %63, null
  br i1 %64, label %65, label %89

65:                                               ; preds = %61
  %66 = getelementptr inbounds [1 x %struct.__va_list_tag], ptr %16, i64 0, i64 0
  %67 = getelementptr inbounds nuw %struct.__va_list_tag, ptr %66, i32 0, i32 0
  %68 = load i32, ptr %67, align 16
  %69 = icmp ule i32 %68, 40
  br i1 %69, label %70, label %75

70:                                               ; preds = %65
  %71 = getelementptr inbounds nuw %struct.__va_list_tag, ptr %66, i32 0, i32 3
  %72 = load ptr, ptr %71, align 16
  %73 = getelementptr i8, ptr %72, i32 %68
  %74 = add i32 %68, 8
  store i32 %74, ptr %67, align 16
  br label %79

75:                                               ; preds = %65
  %76 = getelementptr inbounds nuw %struct.__va_list_tag, ptr %66, i32 0, i32 2
  %77 = load ptr, ptr %76, align 8
  %78 = getelementptr i8, ptr %77, i32 8
  store ptr %78, ptr %76, align 8
  br label %79

79:                                               ; preds = %75, %70
  %80 = phi ptr [ %73, %70 ], [ %77, %75 ]
  %81 = load ptr, ptr %80, align 8
  store ptr %81, ptr %15, align 8
  %82 = load ptr, ptr %13, align 8
  %83 = getelementptr inbounds nuw %struct._tvbparse_wanted_t, ptr %82, i32 0, i32 2
  %84 = getelementptr inbounds nuw %struct.anon.2, ptr %83, i32 0, i32 0
  %85 = load ptr, ptr %84, align 8
  %86 = load ptr, ptr %14, align 8
  %87 = load ptr, ptr %15, align 8
  %88 = call ptr @wmem_map_insert(ptr noundef %85, ptr noundef %86, ptr noundef %87)
  br label %47, !llvm.loop !16

89:                                               ; preds = %61
  %90 = getelementptr inbounds [1 x %struct.__va_list_tag], ptr %16, i64 0, i64 0
  call void @llvm.va_end.p0(ptr %90)
  %91 = load ptr, ptr %13, align 8
  call void @llvm.lifetime.end.p0(i64 24, ptr %16) #11
  call void @llvm.lifetime.end.p0(i64 8, ptr %15) #11
  call void @llvm.lifetime.end.p0(i64 8, ptr %14) #11
  call void @llvm.lifetime.end.p0(i64 8, ptr %13) #11
  ret ptr %91
}