; Function Attrs: null_pointer_is_valid sspstrong uwtable
define noalias noundef ptr @tvbparse_hashed(i32 noundef %0, ptr noundef %1, ptr noundef %2, ptr noundef %3, ptr noundef %4, ptr noundef %5, ...) local_unnamed_addr #0 {
  %7 = alloca [1 x %struct.__va_list_tag], align 16
  %8 = tail call ptr @wmem_epan_scope()
  %9 = tail call noalias dereferenceable_or_null(80) ptr @wmem_alloc0(ptr noundef %8, i64 noundef 80) #11
  call void @llvm.lifetime.start.p0(i64 24, ptr nonnull %7) #12
  %10 = getelementptr inbounds nuw i8, ptr %9, i64 8
  store ptr @cond_hash, ptr %10, align 8
  store i32 %0, ptr %9, align 8
  %11 = getelementptr inbounds nuw i8, ptr %9, i64 56
  store ptr %1, ptr %11, align 8
  %12 = getelementptr inbounds nuw i8, ptr %9, i64 64
  store ptr %2, ptr %12, align 8
  %13 = getelementptr inbounds nuw i8, ptr %9, i64 72
  store ptr %3, ptr %13, align 8
  %14 = tail call ptr @wmem_epan_scope()
  %15 = tail call noalias ptr @wmem_map_new(ptr noundef %14, ptr noundef nonnull @g_str_hash, ptr noundef nonnull @g_str_equal)
  %16 = getelementptr inbounds nuw i8, ptr %9, i64 16
  store ptr %15, ptr %16, align 8
  %17 = getelementptr inbounds nuw i8, ptr %9, i64 24
  store ptr %4, ptr %17, align 8
  %18 = getelementptr inbounds nuw i8, ptr %9, i64 32
  store ptr %5, ptr %18, align 8
  call void @llvm.va_start.p0(ptr nonnull %7)
  %19 = getelementptr inbounds nuw i8, ptr %7, i64 8
  %20 = getelementptr inbounds nuw i8, ptr %7, i64 16
  br label %21

21:                                               ; preds = %46, %6
  %22 = load i32, ptr %7, align 16
  %23 = icmp ult i32 %22, 41
  br i1 %23, label %24, label %29

24:                                               ; preds = %21
  %25 = load ptr, ptr %20, align 16
  %26 = zext nneg i32 %22 to i64
  %27 = getelementptr i8, ptr %25, i64 %26
  %28 = add nuw nsw i32 %22, 8
  store i32 %28, ptr %7, align 16
  br label %32

29:                                               ; preds = %21
  %30 = load ptr, ptr %19, align 8
  %31 = getelementptr i8, ptr %30, i64 8
  store ptr %31, ptr %19, align 8
  br label %32

32:                                               ; preds = %29, %24
  %33 = phi i32 [ %28, %24 ], [ %22, %29 ]
  %34 = phi ptr [ %27, %24 ], [ %30, %29 ]
  %35 = load ptr, ptr %34, align 8
  %.not = icmp eq ptr %35, null
  br i1 %.not, label %50, label %36

36:                                               ; preds = %32
  %37 = icmp ult i32 %33, 41
  br i1 %37, label %38, label %43

38:                                               ; preds = %36
  %39 = load ptr, ptr %20, align 16
  %40 = zext nneg i32 %33 to i64
  %41 = getelementptr i8, ptr %39, i64 %40
  %42 = add nuw nsw i32 %33, 8
  store i32 %42, ptr %7, align 16
  br label %46

43:                                               ; preds = %36
  %44 = load ptr, ptr %19, align 8
  %45 = getelementptr i8, ptr %44, i64 8
  store ptr %45, ptr %19, align 8
  br label %46

46:                                               ; preds = %43, %38
  %47 = phi ptr [ %41, %38 ], [ %44, %43 ]
  %48 = load ptr, ptr %47, align 8
  %49 = call ptr @wmem_map_insert(ptr noundef %15, ptr noundef nonnull %35, ptr noundef %48)
  br label %21, !llvm.loop !13

50:                                               ; preds = %32
  call void @llvm.va_end.p0(ptr nonnull %7)
  call void @llvm.lifetime.end.p0(i64 24, ptr nonnull %7) #12
  ret ptr %9
}